Certificate:
    Data:
        Version: 3 (0x2)
        Serial Number: 3 (0x3)
        Signature Algorithm: sha1WithRSAEncryption
        Issuer: C=CN, ST=Shanghai, O=WuYinJun, CN=WuYinJun Root CA
        Validity
            Not Before: Nov 19 12:41:28 2016 GMT
            Not After : Nov 20 12:41:28 2046 GMT
        Subject: C=CN, ST=Shanghai, L=Shanghai, O=WuYinJun, CN=172.20.1.101
        Subject Public Key Info:
            Public Key Algorithm: rsaEncryption
            RSA Public Key: (2048 bit)
                Modulus (2048 bit):
                    00:b1:f6:1b:cd:3e:40:d9:91:3d:80:bf:df:9b:8e:
                    7f:85:12:12:d9:ea:03:70:35:24:e7:65:18:cf:d7:
                    37:cd:68:ae:35:9c:e5:18:ff:ba:53:cd:70:6a:6c:
                    5f:3d:1a:c1:09:ba:fd:7e:d0:27:0e:04:b0:4e:9e:
                    7c:9f:4d:40:47:c9:0b:d8:11:c4:e2:88:b3:2d:38:
                    92:52:86:f6:cb:83:58:7b:e2:f9:6d:a6:04:49:7d:
                    d7:f1:6c:69:9a:f5:63:3a:84:e6:26:3f:ec:0b:94:
                    66:c8:9a:a5:89:ac:f7:c5:e5:be:a6:62:1a:39:86:
                    a1:cd:b4:60:27:84:61:9a:c8:9e:5e:26:af:ab:12:
                    a8:db:6b:10:94:a4:8f:2a:c1:8f:bf:4a:58:b5:cf:
                    0c:6f:1a:db:ae:81:c9:ff:48:6d:56:12:87:62:31:
                    a2:25:0a:c9:a6:73:30:3f:a7:15:61:e7:07:df:dc:
                    a9:ff:86:25:26:a8:85:be:cc:68:ae:ce:f1:c8:a9:
                    02:8c:32:42:3f:f1:5a:ff:1d:34:dd:b9:61:38:c2:
                    91:c2:a7:98:ea:91:63:46:6c:1e:5d:76:32:1c:9a:
                    8d:8d:cb:92:27:3f:2e:34:55:d8:65:04:07:67:6f:
                    74:d5:6c:0e:3e:25:e8:ae:e5:77:36:55:88:7c:94:
                    15:39
                Exponent: 65537 (0x10001)
        X509v3 extensions:
            X509v3 Key Usage: critical
                Certificate Sign, CRL Sign
            X509v3 Basic Constraints: critical
                CA:TRUE, pathlen:0
            X509v3 Subject Key Identifier: 
                AF:E8:F1:1A:F4:34:6F:28:55:50:DD:6E:C8:64:DD:4A:4B:27:CD:B5
            X509v3 Authority Key Identifier: 
                keyid:F1:59:03:F2:5D:C9:37:03:C5:2D:1A:74:B4:60:9B:DC:F8:07:52:55

    Signature Algorithm: sha1WithRSAEncryption
        38:6d:ee:2e:4d:bd:90:1f:dc:2e:8c:48:b3:3a:e6:52:5c:b4:
        81:f8:17:58:a9:fc:84:be:59:4b:fb:26:54:dc:09:7f:e9:60:
        30:f2:1f:a5:ba:ba:66:ac:20:e0:88:85:be:f2:9a:bd:82:5d:
        31:51:cf:95:60:ac:ed:02:ef:e9:1d:d4:38:bf:27:b8:aa:ce:
        ba:b4:91:bc:75:ad:ec:8c:f2:97:5e:36:84:04:4f:22:48:a9:
        0f:d1:21:32:f9:89:75:a8:60:d6:3a:58:60:d5:e1:17:42:9a:
        74:32:c4:2c:dd:a1:71:4c:0d:94:35:ba:1e:e6:d5:2e:36:a2:
        a4:ba:d3:9e:30:fa:08:89:8f:54:f1:00:37:2d:23:d5:84:65:
        69:30:8b:a0:b0:85:64:d6:73:fd:c7:95:8f:6d:5b:11:cf:07:
        94:50:fc:ea:eb:94:52:a6:e5:30:cc:d7:05:b1:be:ef:3c:22:
        da:1e:e0:53:b6:ea:c7:66:c0:62:27:71:f6:ff:0e:61:94:ef:
        ee:27:b1:ce:b4:3a:6a:3c:e3:bc:72:37:8d:8f:48:50:a7:7d:
        69:05:c9:a7:95:8e:ed:1a:f3:b7:da:bf:7d:db:f5:19:27:3b:
        ac:65:f9:d7:3f:e1:2a:d5:4f:3e:c4:6a:b5:1e:aa:09:5e:98:
        68:1b:15:07
-----BEGIN CERTIFICATE-----
MIIDjDCCAnSgAwIBAgIBAzANBgkqhkiG9w0BAQUFADBOMQswCQYDVQQGEwJDTjER
MA8GA1UECAwIU2hhbmdoYWkxETAPBgNVBAoMCFd1WWluSnVuMRkwFwYDVQQDDBBX
dVlpbkp1biBSb290IENBMB4XDTE2MTExOTEyNDEyOFoXDTQ2MTEyMDEyNDEyOFow
XTELMAkGA1UEBhMCQ04xETAPBgNVBAgTCFNoYW5naGFpMREwDwYDVQQHEwhTaGFu
Z2hhaTERMA8GA1UEChMIV3VZaW5KdW4xFTATBgNVBAMTDDE3Mi4yMC4xLjEwMTCC
ASIwDQYJKoZIhvcNAQEBBQADggEPADCCAQoCggEBALH2G80+QNmRPYC/35uOf4US
EtnqA3A1JOdlGM/XN81orjWc5Rj/ulPNcGpsXz0awQm6/X7QJw4EsE6efJ9NQEfJ
C9gRxOKIsy04klKG9suDWHvi+W2mBEl91/FsaZr1YzqE5iY/7AuUZsiapYms98Xl
vqZiGjmGoc20YCeEYZrInl4mr6sSqNtrEJSkjyrBj79KWLXPDG8a266Byf9IbVYS
h2IxoiUKyaZzMD+nFWHnB9/cqf+GJSaohb7MaK7O8cipAowyQj/xWv8dNN25YTjC
kcKnmOqRY0ZsHl12MhyajY3Lkic/LjRV2GUEB2dvdNVsDj4l6K7ldzZViHyUFTkC
AwEAAaNmMGQwDgYDVR0PAQH/BAQDAgEGMBIGA1UdEwEB/wQIMAYBAf8CAQAwHQYD
VR0OBBYEFK/o8Rr0NG8oVVDdbshk3UpLJ821MB8GA1UdIwQYMBaAFPFZA/JdyTcD
xS0adLRgm9z4B1JVMA0GCSqGSIb3DQEBBQUAA4IBAQA4be4uTb2QH9wujEizOuZS
XLSB+BdYqfyEvllL+yZU3Al/6WAw8h+lurpmrCDgiIW+8pq9gl0xUc+VYKztAu/p
HdQ4vye4qs66tJG8da3sjPKXXjaEBE8iSKkP0SEy+Yl1qGDWOlhg1eEXQpp0MsQs
3aFxTA2UNboe5tUuNqKkutOeMPoIiY9U8QA3LSPVhGVpMIugsIVk1nP9x5WPbVsR
zweUUPzq65RSpuUwzNcFsb7vPCLaHuBTturHZsBiJ3H2/w5hlO/uJ7HOtDpqPOO8
cjeNj0hQp31pBcmnlY7tGvO32r992/UZJzusZfnXP+Eq1U8+xGq1HqoJXphoGxUH
-----END CERTIFICATE-----
