Certificate:
    Data:
        Version: 3 (0x2)
        Serial Number: 1 (0x1)
        Signature Algorithm: sha1WithRSAEncryption
        Issuer: C=CN, ST=Shanghai, O=WuYinJun, CN=WuYinJun Root CA
        Validity
            Not Before: Nov 17 06:37:56 2016 GMT
            Not After : Nov 18 06:37:56 2046 GMT
        Subject: C=CN, ST=Shanghai, O=WuYinJun, CN=WuYinJun Root CA
        Subject Public Key Info:
            Public Key Algorithm: rsaEncryption
            RSA Public Key: (2048 bit)
                Modulus (2048 bit):
                    00:eb:5a:52:13:26:06:36:93:23:e2:9c:81:1a:44:
                    3b:98:02:ab:20:7d:1a:3a:3d:70:be:64:e1:01:1a:
                    b7:39:84:97:a6:f8:dd:66:9d:c5:5d:ff:39:01:e4:
                    16:75:9d:9a:c6:7b:fd:56:d9:42:15:0c:c9:18:06:
                    d1:2c:08:f9:dd:ea:6d:9d:c3:ca:b1:d1:a4:ef:d9:
                    56:fc:11:e2:51:5d:ce:02:27:60:2a:db:3d:77:81:
                    85:91:29:a4:81:6e:cc:99:cb:e8:42:b1:92:f2:5a:
                    07:77:d4:15:21:16:5d:1d:02:65:2d:86:99:b3:79:
                    21:25:4c:9f:e7:8a:61:65:34:4e:a8:00:da:9b:9e:
                    4a:d4:fa:f8:4f:9c:2a:c6:8a:d0:ab:09:1f:e9:4b:
                    7a:f2:ab:f4:39:5c:da:76:b0:f3:db:1a:4b:5f:36:
                    71:08:59:e0:91:07:34:21:58:f0:62:1c:0b:69:82:
                    2b:18:31:ba:08:a9:68:f3:21:6d:2c:21:17:44:a7:
                    69:06:70:84:4c:ce:9a:97:19:b3:6e:c3:32:01:56:
                    08:67:67:58:84:eb:69:27:00:f4:f7:30:52:6f:b3:
                    d0:f9:23:4a:b6:ea:eb:5f:da:c3:38:ab:c7:08:24:
                    b0:2a:73:70:e8:81:b2:92:f8:08:74:5a:c8:3f:c0:
                    9b:d5
                Exponent: 65537 (0x10001)
        X509v3 extensions:
            X509v3 Key Usage: critical
                Certificate Sign, CRL Sign
            X509v3 Basic Constraints: critical
                CA:TRUE
            X509v3 Subject Key Identifier: 
                F1:59:03:F2:5D:C9:37:03:C5:2D:1A:74:B4:60:9B:DC:F8:07:52:55
            X509v3 Authority Key Identifier: 
                keyid:F1:59:03:F2:5D:C9:37:03:C5:2D:1A:74:B4:60:9B:DC:F8:07:52:55

    Signature Algorithm: sha1WithRSAEncryption
        32:a5:5b:3b:0f:cb:50:b8:36:2c:61:54:10:38:89:6b:08:0d:
        a1:a1:02:c7:da:bf:70:1f:d4:57:13:d0:21:88:4e:c9:61:9e:
        62:85:a6:c1:7d:15:5c:4d:b5:a2:99:be:92:44:79:ee:33:99:
        30:10:c8:08:80:18:5a:5b:5b:84:5a:d5:58:5b:5c:e1:c3:00:
        42:30:69:3a:a9:8c:15:1e:dc:b9:cd:21:28:21:71:04:72:d1:
        e9:d9:07:0a:37:25:e4:b0:eb:00:bf:c1:ed:32:a6:88:7d:e8:
        27:a9:87:eb:85:fc:7d:4d:66:9e:77:8d:09:51:e4:82:c0:85:
        0e:b7:fe:36:0e:b6:4e:65:0c:4e:3f:71:a1:2e:59:7e:79:fc:
        bb:30:c9:a3:3a:a7:10:1d:68:17:c8:2b:27:a6:7a:35:2d:85:
        1a:57:76:f3:a8:a7:86:d4:3e:da:e1:74:e3:ef:31:33:61:ab:
        2c:4f:77:1e:7b:36:12:c2:c2:38:56:6e:d2:8a:c0:b2:8a:09:
        07:c0:7a:27:c9:91:50:7a:b7:73:72:9e:22:cf:65:ab:cf:af:
        e1:b6:2c:50:ec:76:d5:5d:b0:0f:c1:60:5f:bd:47:61:6c:6e:
        7c:a5:82:f7:1b:a4:a3:f4:a7:c5:4d:f2:1e:35:b2:03:b1:18:
        1a:2f:1b:a8
-----BEGIN CERTIFICATE-----
MIIDejCCAmKgAwIBAgIBATANBgkqhkiG9w0BAQUFADBOMQswCQYDVQQGEwJDTjER
MA8GA1UECAwIU2hhbmdoYWkxETAPBgNVBAoMCFd1WWluSnVuMRkwFwYDVQQDDBBX
dVlpbkp1biBSb290IENBMB4XDTE2MTExNzA2Mzc1NloXDTQ2MTExODA2Mzc1Nlow
TjELMAkGA1UEBhMCQ04xETAPBgNVBAgMCFNoYW5naGFpMREwDwYDVQQKDAhXdVlp
bkp1bjEZMBcGA1UEAwwQV3VZaW5KdW4gUm9vdCBDQTCCASIwDQYJKoZIhvcNAQEB
BQADggEPADCCAQoCggEBAOtaUhMmBjaTI+KcgRpEO5gCqyB9Gjo9cL5k4QEatzmE
l6b43WadxV3/OQHkFnWdmsZ7/VbZQhUMyRgG0SwI+d3qbZ3DyrHRpO/ZVvwR4lFd
zgInYCrbPXeBhZEppIFuzJnL6EKxkvJaB3fUFSEWXR0CZS2GmbN5ISVMn+eKYWU0
TqgA2pueStT6+E+cKsaK0KsJH+lLevKr9Dlc2naw89saS182cQhZ4JEHNCFY8GIc
C2mCKxgxugipaPMhbSwhF0SnaQZwhEzOmpcZs27DMgFWCGdnWITraScA9PcwUm+z
0PkjSrbq61/awzirxwgksCpzcOiBspL4CHRayD/Am9UCAwEAAaNjMGEwDgYDVR0P
AQH/BAQDAgEGMA8GA1UdEwEB/wQFMAMBAf8wHQYDVR0OBBYEFPFZA/JdyTcDxS0a
dLRgm9z4B1JVMB8GA1UdIwQYMBaAFPFZA/JdyTcDxS0adLRgm9z4B1JVMA0GCSqG
SIb3DQEBBQUAA4IBAQAypVs7D8tQuDYsYVQQOIlrCA2hoQLH2r9wH9RXE9AhiE7J
YZ5ihabBfRVcTbWimb6SRHnuM5kwEMgIgBhaW1uEWtVYW1zhwwBCMGk6qYwVHty5
zSEoIXEEctHp2QcKNyXksOsAv8HtMqaIfegnqYfrhfx9TWaed40JUeSCwIUOt/42
DrZOZQxOP3GhLll+efy7MMmjOqcQHWgXyCsnpno1LYUaV3bzqKeG1D7a4XTj7zEz
YassT3ceezYSwsI4Vm7SisCyigkHwHonyZFQerdzcp4iz2Wrz6/htixQ7HbVXbAP
wWBfvUdhbG58pYL3G6Sj9KfFTfIeNbIDsRgaLxuo
-----END CERTIFICATE-----
